; Function Attrs: mustprogress uwtable
define dso_local noundef ptr @_ZN4Luau8getLevelEPKNS_4TypeE(ptr noundef %0) local_unnamed_addr #2 {
  %2 = tail call noundef ptr @_ZN4Luau6followEPKNS_4TypeENS_12FollowOptionE(ptr noundef %0, i32 noundef 0)
  %.not.i.i = icmp eq ptr %2, null
  br i1 %.not.i.i, label %_ZN4Luau3getINS_12FunctionTypeEEEPKT_PKNS_4TypeE.exit, label %3

3:                                                ; preds = %1
  %4 = load i32, ptr %2, align 8, !tbaa !8
  switch i32 %4, label %7 [
    i32 2, label %_ZN4Luau3getINS_8FreeTypeEEEPKT_PKNS_4TypeE.exit
    i32 9, label %_ZN4Luau3getINS_9TableTypeEEEPKT_PKNS_4TypeE.exit
  ]

_ZN4Luau3getINS_8FreeTypeEEEPKT_PKNS_4TypeE.exit: ; preds = %3
  %5 = getelementptr inbounds nuw i8, ptr %2, i64 12
  br label %13

_ZN4Luau3getINS_9TableTypeEEEPKT_PKNS_4TypeE.exit: ; preds = %3
  %6 = getelementptr inbounds nuw i8, ptr %2, i64 84
  br label %13

7:                                                ; preds = %3
  %8 = icmp eq i32 %4, 8
  %9 = getelementptr inbounds nuw i8, ptr %2, i64 8
  %10 = select i1 %8, ptr %9, ptr null
  br label %_ZN4Luau3getINS_12FunctionTypeEEEPKT_PKNS_4TypeE.exit

_ZN4Luau3getINS_12FunctionTypeEEEPKT_PKNS_4TypeE.exit: ; preds = %1, %7
  %11 = phi ptr [ %10, %7 ], [ null, %1 ]
  %.not15 = icmp eq ptr %11, null
  %12 = getelementptr inbounds nuw i8, ptr %11, i64 200
  %.2 = select i1 %.not15, ptr null, ptr %12
  br label %13

13:                                               ; preds = %_ZN4Luau3getINS_9TableTypeEEEPKT_PKNS_4TypeE.exit, %_ZN4Luau3getINS_12FunctionTypeEEEPKT_PKNS_4TypeE.exit, %_ZN4Luau3getINS_8FreeTypeEEEPKT_PKNS_4TypeE.exit
  %.0 = phi ptr [ %5, %_ZN4Luau3getINS_8FreeTypeEEEPKT_PKNS_4TypeE.exit ], [ %6, %_ZN4Luau3getINS_9TableTypeEEEPKT_PKNS_4TypeE.exit ], [ %.2, %_ZN4Luau3getINS_12FunctionTypeEEEPKT_PKNS_4TypeE.exit ]
  ret ptr %.0
}